target datalayout = "e-m:e-p270:32:32-p271:32:32-p272:64:64-i64:64-i128:128-f80:128-n8:16:32:64-S128"
target triple = "x86_64-pc-linux-gnu"

; Function Attrs: nounwind uwtable
define dso_local zeroext i1 @safe_memcmp(ptr noundef %0, ptr noundef %1, i64 noundef %2) #0 {
  %4 = alloca i1, align 1
  %5 = alloca ptr, align 8
  %6 = alloca ptr, align 8
  %7 = alloca i64, align 8
  %8 = alloca ptr, align 8
  %9 = alloca ptr, align 8
  %10 = alloca i32, align 4
  %11 = alloca i64, align 8
  %12 = alloca i32, align 4
  store ptr %0, ptr %5, align 8, !tbaa !32
  store ptr %1, ptr %6, align 8, !tbaa !32
  store i64 %2, ptr %7, align 8, !tbaa !17
  call void @llvm.lifetime.start.p0(i64 8, ptr %8) #8
  %13 = load ptr, ptr %5, align 8, !tbaa !32
  store ptr %13, ptr %8, align 8, !tbaa !4
  call void @llvm.lifetime.start.p0(i64 8, ptr %9) #8
  %14 = load ptr, ptr %6, align 8, !tbaa !32
  store ptr %14, ptr %9, align 8, !tbaa !4
  call void @llvm.lifetime.start.p0(i64 4, ptr %10) #8
  store i32 0, ptr %10, align 4, !tbaa !9
  call void @llvm.lifetime.start.p0(i64 8, ptr %11) #8
  store i64 0, ptr %11, align 8, !tbaa !17
  br label %15

15:                                               ; preds = %33, %3
  %16 = load i64, ptr %11, align 8, !tbaa !17
  %17 = load i64, ptr %7, align 8, !tbaa !17
  %18 = icmp ult i64 %16, %17
  br i1 %18, label %19, label %36

19:                                               ; preds = %15
  %20 = load ptr, ptr %8, align 8, !tbaa !4
  %21 = load i64, ptr %11, align 8, !tbaa !17
  %22 = getelementptr inbounds nuw i8, ptr %20, i64 %21
  %23 = load volatile i8, ptr %22, align 1, !tbaa !19
  %24 = zext i8 %23 to i32
  %25 = load ptr, ptr %9, align 8, !tbaa !4
  %26 = load i64, ptr %11, align 8, !tbaa !17
  %27 = getelementptr inbounds nuw i8, ptr %25, i64 %26
  %28 = load volatile i8, ptr %27, align 1, !tbaa !19
  %29 = zext i8 %28 to i32
  %30 = xor i32 %24, %29
  %31 = load i32, ptr %10, align 4, !tbaa !9
  %32 = or i32 %31, %30
  store i32 %32, ptr %10, align 4, !tbaa !9
  br label %33

33:                                               ; preds = %19
  %34 = load i64, ptr %11, align 8, !tbaa !17
  %35 = add i64 %34, 1
  store i64 %35, ptr %11, align 8, !tbaa !17
  br label %15, !llvm.loop !33

36:                                               ; preds = %15
  %37 = load i32, ptr %10, align 4, !tbaa !9
  %38 = icmp eq i32 %37, 0
  br i1 %38, label %39, label %40

39:                                               ; preds = %36
  store i1 true, ptr %4, align 1
  store i32 1, ptr %12, align 4
  br label %41

40:                                               ; preds = %36
  store i1 false, ptr %4, align 1
  store i32 1, ptr %12, align 4
  br label %41

41:                                               ; preds = %40, %39
  call void @llvm.lifetime.end.p0(i64 8, ptr %11) #8
  call void @llvm.lifetime.end.p0(i64 4, ptr %10) #8
  call void @llvm.lifetime.end.p0(i64 8, ptr %9) #8
  call void @llvm.lifetime.end.p0(i64 8, ptr %8) #8
  %42 = load i1, ptr %4, align 1
  ret i1 %42
}