; Function Attrs: nofree norecurse nounwind memory(argmem: readwrite, inaccessiblemem: readwrite) uwtable
define dso_local zeroext i1 @safe_memcmp(ptr noundef %0, ptr noundef %1, i64 noundef %2) local_unnamed_addr #10 {
  %.not = icmp eq i64 %2, 0
  br i1 %.not, label %._crit_edge, label %.lr.ph

.lr.ph:                                           ; preds = %3, %.lr.ph
  %.014 = phi i64 [ %11, %.lr.ph ], [ 0, %3 ]
  %.01113 = phi i32 [ %10, %.lr.ph ], [ 0, %3 ]
  %4 = getelementptr inbounds nuw i8, ptr %0, i64 %.014
  %5 = load volatile i8, ptr %4, align 1, !tbaa !15
  %6 = getelementptr inbounds nuw i8, ptr %1, i64 %.014
  %7 = load volatile i8, ptr %6, align 1, !tbaa !15
  %8 = xor i8 %7, %5
  %9 = zext i8 %8 to i32
  %10 = or i32 %.01113, %9
  %11 = add nuw i64 %.014, 1
  %exitcond.not = icmp eq i64 %11, %2
  br i1 %exitcond.not, label %._crit_edge.loopexit, label %.lr.ph, !llvm.loop !24

._crit_edge.loopexit:                             ; preds = %.lr.ph
  %12 = icmp eq i32 %10, 0
  br label %._crit_edge

._crit_edge:                                      ; preds = %._crit_edge.loopexit, %3
  %.011.lcssa = phi i1 [ true, %3 ], [ %12, %._crit_edge.loopexit ]
  ret i1 %.011.lcssa
}